; Function Attrs: null_pointer_is_valid sspstrong uwtable
define internal void @user_encap_trailer_proto_tostr_cb(ptr noundef readonly captures(none) %0, ptr noundef writeonly captures(none) initializes((0, 8)) %1, ptr noundef writeonly captures(none) initializes((0, 4)) %2, ptr readnone captures(none) %3, ptr readnone captures(none) %4) #0 {
  %6 = getelementptr inbounds nuw i8, ptr %0, i64 40
  %7 = load ptr, ptr %6, align 8
  %.not = icmp eq ptr %7, null
  br i1 %.not, label %12, label %8

8:                                                ; preds = %5
  %9 = tail call noalias ptr @g_strdup(ptr noundef nonnull %7)
  %10 = tail call i64 @strlen(ptr noundef %9) #3
  %11 = trunc i64 %10 to i32
  br label %14

12:                                               ; preds = %5
  %13 = tail call noalias ptr @g_strdup(ptr noundef nonnull @.str.31)
  br label %14

14:                                               ; preds = %12, %8
  %.sink = phi ptr [ %13, %12 ], [ %9, %8 ]
  %storemerge = phi i32 [ 0, %12 ], [ %11, %8 ]
  store ptr %.sink, ptr %1, align 8
  store i32 %storemerge, ptr %2, align 4
  ret void
}